; Function Attrs: mustprogress nofree nounwind uwtable
define noundef nonnull align 8 dereferenceable(48) ptr @_ZN8LightGBM13ParserFactory11getInstanceEv() local_unnamed_addr #20 align 2 personality ptr @__gxx_personality_v0 {
  %1 = load atomic i8, ptr @_ZGVZN8LightGBM13ParserFactory11getInstanceEvE7factory acquire, align 8
  %2 = icmp eq i8 %1, 0
  br i1 %2, label %3, label %7, !prof !112

3:                                                ; preds = %0
  %4 = tail call i32 @__cxa_guard_acquire(ptr nonnull @_ZGVZN8LightGBM13ParserFactory11getInstanceEvE7factory) #33
  %.not = icmp eq i32 %4, 0
  br i1 %.not, label %7, label %5

5:                                                ; preds = %3
  store i32 0, ptr getelementptr inbounds nuw (i8, ptr @_ZZN8LightGBM13ParserFactory11getInstanceEvE7factory, i64 8), align 8, !tbaa !113
  store ptr null, ptr getelementptr inbounds nuw (i8, ptr @_ZZN8LightGBM13ParserFactory11getInstanceEvE7factory, i64 16), align 8, !tbaa !118
  store ptr getelementptr inbounds nuw (i8, ptr @_ZZN8LightGBM13ParserFactory11getInstanceEvE7factory, i64 8), ptr getelementptr inbounds nuw (i8, ptr @_ZZN8LightGBM13ParserFactory11getInstanceEvE7factory, i64 24), align 8, !tbaa !119
  store ptr getelementptr inbounds nuw (i8, ptr @_ZZN8LightGBM13ParserFactory11getInstanceEvE7factory, i64 8), ptr getelementptr inbounds nuw (i8, ptr @_ZZN8LightGBM13ParserFactory11getInstanceEvE7factory, i64 32), align 8, !tbaa !120
  store i64 0, ptr getelementptr inbounds nuw (i8, ptr @_ZZN8LightGBM13ParserFactory11getInstanceEvE7factory, i64 40), align 8, !tbaa !121
  %6 = tail call i32 @__cxa_atexit(ptr nonnull @_ZN8LightGBM13ParserFactoryD2Ev, ptr nonnull @_ZZN8LightGBM13ParserFactory11getInstanceEvE7factory, ptr nonnull @__dso_handle) #33
  tail call void @__cxa_guard_release(ptr nonnull @_ZGVZN8LightGBM13ParserFactory11getInstanceEvE7factory) #33
  br label %7

7:                                                ; preds = %5, %3, %0
  ret ptr @_ZZN8LightGBM13ParserFactory11getInstanceEvE7factory
}